Certificate:
    Data:
        Version: 3 (0x2)
        Serial Number:
            41:5c:2f:10:2c:71:a8:e0:be:04:ae:fa:a1:19:72:38:d1:34:0f:f6
        Signature Algorithm: sha256WithRSAEncryption
        Issuer: CN = brmo-db
        Validity
            Not Before: Jun  9 08:55:15 2023 GMT
            Not After : Jun  8 08:55:15 2026 GMT
        Subject: CN = brmo-db
        Subject Public Key Info:
            Public Key Algorithm: rsaEncryption
                Public-Key: (2048 bit)
                Modulus:
                    00:d0:d3:69:06:f7:b7:9c:97:fa:08:51:b5:ed:8e:
                    40:12:1e:ca:17:41:7a:da:d6:28:e2:59:62:c5:7a:
                    f7:99:3c:5c:2a:9a:0d:1a:5b:ee:9a:cf:a9:d0:35:
                    4e:e6:bf:04:a8:c2:20:ed:74:30:00:73:94:4c:39:
                    65:64:02:35:6b:b3:a0:66:f6:e4:d6:ca:b9:2a:de:
                    cb:af:54:db:e1:5a:f4:dd:d5:ae:74:bd:1d:88:f7:
                    03:81:e7:69:50:88:0e:d8:61:bc:22:0c:02:30:12:
                    48:10:33:cb:63:4d:f1:e0:3b:6f:cc:ac:97:37:d0:
                    3f:bf:72:b2:b7:f3:b2:0d:b7:6f:c1:ff:40:34:7b:
                    f8:c7:5b:1b:94:17:0d:fa:f1:32:58:76:4e:c2:19:
                    c7:0d:9d:97:2d:e9:ed:8a:58:7c:ce:0a:c4:1d:04:
                    b3:34:65:db:84:f7:68:f7:8d:f3:b5:25:33:fc:21:
                    9e:aa:cd:fc:74:b7:e8:81:85:27:7a:b1:7a:53:17:
                    2d:dc:45:36:05:e3:37:80:01:21:b9:f8:da:e7:a1:
                    8c:67:04:80:d2:1e:07:4b:c5:90:92:0d:4a:d5:e5:
                    6d:08:74:d8:12:2a:4b:42:5f:84:ac:03:40:b1:58:
                    9c:bb:16:66:72:8c:71:c9:b7:66:df:36:aa:52:f4:
                    e7:55
                Exponent: 65537 (0x10001)
        X509v3 extensions:
            X509v3 Subject Key Identifier: 
                E6:ED:F8:DE:14:03:9B:BB:EE:F1:5E:ED:A1:C7:0D:69:03:73:E7:91
            X509v3 Authority Key Identifier: 
                E6:ED:F8:DE:14:03:9B:BB:EE:F1:5E:ED:A1:C7:0D:69:03:73:E7:91
            X509v3 Basic Constraints: critical
                CA:TRUE
    Signature Algorithm: sha256WithRSAEncryption
    Signature Value:
        0b:3d:f2:f6:7f:4d:9a:ca:6e:4f:48:76:a1:6b:d2:f4:37:88:
        e9:23:c6:c3:ca:68:d5:91:f7:66:27:4a:ad:17:f0:8a:80:69:
        a3:34:b9:f7:1f:8e:34:5b:69:ac:15:86:fe:35:43:59:3a:80:
        9f:0c:52:d8:d7:60:c1:5b:8c:05:fc:e6:e4:10:ba:aa:8a:3f:
        4e:d7:9e:62:ca:ba:f1:b0:d8:3c:1e:8a:58:59:e1:94:81:c5:
        53:a3:dc:6e:32:70:60:b5:5a:62:34:43:0c:63:d2:1d:77:90:
        cd:2b:59:b3:53:e1:b7:c3:3f:06:5c:fc:3a:e9:19:1d:27:7f:
        b6:73:32:9f:f2:c8:ee:ea:28:f8:2a:9c:b6:63:8a:86:9f:7c:
        fb:46:c6:e9:fa:75:3e:c3:67:60:8c:71:81:86:cb:e3:0c:44:
        b4:3e:3c:42:ef:d2:cb:6a:70:0d:fc:ba:49:eb:0b:86:80:d6:
        e9:fd:48:1a:c8:f8:2f:4e:0e:fb:0e:9a:fb:9b:12:79:9f:b0:
        2a:ed:1c:c2:7b:dd:fc:fb:68:ce:8f:9b:9b:75:66:ef:f9:79:
        d3:f3:67:66:ae:5c:86:bf:3c:db:f9:e9:f6:65:58:12:d3:86:
        d8:e5:0d:88:27:68:a9:15:9f:d7:8a:e5:47:2d:07:36:2c:e2:
        9e:8e:a5:83
-----BEGIN CERTIFICATE-----
MIIDBTCCAe2gAwIBAgIUQVwvECxxqOC+BK76oRlyONE0D/YwDQYJKoZIhvcNAQEL
BQAwEjEQMA4GA1UEAwwHYnJtby1kYjAeFw0yMzA2MDkwODU1MTVaFw0yNjA2MDgw
ODU1MTVaMBIxEDAOBgNVBAMMB2JybW8tZGIwggEiMA0GCSqGSIb3DQEBAQUAA4IB
DwAwggEKAoIBAQDQ02kG97ecl/oIUbXtjkASHsoXQXra1ijiWWLFeveZPFwqmg0a
W+6az6nQNU7mvwSowiDtdDAAc5RMOWVkAjVrs6Bm9uTWyrkq3suvVNvhWvTd1a50
vR2I9wOB52lQiA7YYbwiDAIwEkgQM8tjTfHgO2/MrJc30D+/crK387INt2/B/0A0
e/jHWxuUFw368TJYdk7CGccNnZct6e2KWHzOCsQdBLM0ZduE92j3jfO1JTP8IZ6q
zfx0t+iBhSd6sXpTFy3cRTYF4zeAASG5+NrnoYxnBIDSHgdLxZCSDUrV5W0IdNgS
KktCX4SsA0CxWJy7FmZyjHHJt2bfNqpS9OdVAgMBAAGjUzBRMB0GA1UdDgQWBBTm
7fjeFAObu+7xXu2hxw1pA3PnkTAfBgNVHSMEGDAWgBTm7fjeFAObu+7xXu2hxw1p
A3PnkTAPBgNVHRMBAf8EBTADAQH/MA0GCSqGSIb3DQEBCwUAA4IBAQALPfL2f02a
ym5PSHaha9L0N4jpI8bDymjVkfdmJ0qtF/CKgGmjNLn3H440W2msFYb+NUNZOoCf
DFLY12DBW4wF/ObkELqqij9O155iyrrxsNg8HopYWeGUgcVTo9xuMnBgtVpiNEMM
Y9Idd5DNK1mzU+G3wz8GXPw66RkdJ3+2czKf8sju6ij4Kpy2Y4qGn3z7Rsbp+nU+
w2dgjHGBhsvjDES0PjxC79LLanAN/LpJ6wuGgNbp/UgayPgvTg77Dpr7mxJ5n7Aq
7RzCe938+2jOj5ubdWbv+XnT82dmrlyGvzzb+en2ZVgS04bY5Q2IJ2ipFZ/XiuVH
LQc2LOKejqWD
-----END CERTIFICATE-----
